target datalayout = "e-m:e-p270:32:32-p271:32:32-p272:64:64-i64:64-i128:128-f80:128-n8:16:32:64-S128"
target triple = "x86_64-pc-linux-gnu"

; Function Attrs: nounwind uwtable
define i64 @tjBufSizeYUV2(i32 noundef %0, i32 noundef %1, i32 noundef %2, i32 noundef %3) #0 {
  %5 = alloca i32, align 4
  %6 = alloca i32, align 4
  %7 = alloca i32, align 4
  %8 = alloca i32, align 4
  %9 = alloca i64, align 8
  store i32 %0, ptr %5, align 4
  store i32 %1, ptr %6, align 4
  store i32 %2, ptr %7, align 4
  store i32 %3, ptr %8, align 4
  %10 = load i32, ptr %5, align 4
  %11 = load i32, ptr %6, align 4
  %12 = load i32, ptr %7, align 4
  %13 = load i32, ptr %8, align 4
  %14 = call i64 @tj3YUVBufSize(i32 noundef %10, i32 noundef %11, i32 noundef %12, i32 noundef %13)
  store i64 %14, ptr %9, align 8
  %15 = load i64, ptr %9, align 8
  %16 = icmp eq i64 %15, 0
  br i1 %16, label %17, label %18

17:                                               ; preds = %4
  br label %20

18:                                               ; preds = %4
  %19 = load i64, ptr %9, align 8
  br label %20

20:                                               ; preds = %18, %17
  %21 = phi i64 [ -1, %17 ], [ %19, %18 ]
  ret i64 %21
}

; Function Attrs: nounwind uwtable
define i32 @tjEncodeYUV2(ptr noundef %0, ptr noundef %1, i32 noundef %2, i32 noundef %3, i32 noundef %4, i32 noundef %5, ptr noundef %6, i32 noundef %7, i32 noundef %8) #0 {
  %10 = alloca ptr, align 8
  %11 = alloca ptr, align 8
  %12 = alloca i32, align 4
  %13 = alloca i32, align 4
  %14 = alloca i32, align 4
  %15 = alloca i32, align 4
  %16 = alloca ptr, align 8
  %17 = alloca i32, align 4
  %18 = alloca i32, align 4
  store ptr %0, ptr %10, align 8
  store ptr %1, ptr %11, align 8
  store i32 %2, ptr %12, align 4
  store i32 %3, ptr %13, align 4
  store i32 %4, ptr %14, align 4
  store i32 %5, ptr %15, align 4
  store ptr %6, ptr %16, align 8
  store i32 %7, ptr %17, align 4
  store i32 %8, ptr %18, align 4
  %19 = load ptr, ptr %10, align 8
  %20 = load ptr, ptr %11, align 8
  %21 = load i32, ptr %12, align 4
  %22 = load i32, ptr %13, align 4
  %23 = load i32, ptr %14, align 4
  %24 = load i32, ptr %15, align 4
  %25 = load ptr, ptr %16, align 8
  %26 = load i32, ptr %17, align 4
  %27 = load i32, ptr %18, align 4
  %28 = call i32 @tjEncodeYUV3(ptr noundef %19, ptr noundef %20, i32 noundef %21, i32 noundef %22, i32 noundef %23, i32 noundef %24, ptr noundef %25, i32 noundef 4, i32 noundef %26, i32 noundef %27)
  ret i32 %28
}

; Function Attrs: nounwind uwtable
define internal i32 @getPixelFormat(i32 noundef %0, i32 noundef %1) #0 {
  %3 = alloca i32, align 4
  %4 = alloca i32, align 4
  %5 = alloca i32, align 4
  store i32 %0, ptr %4, align 4
  store i32 %1, ptr %5, align 4
  %6 = load i32, ptr %4, align 4
  %7 = icmp eq i32 %6, 1
  br i1 %7, label %8, label %9

8:                                                ; preds = %2
  store i32 6, ptr %3, align 4
  br label %38

9:                                                ; preds = %2
  %10 = load i32, ptr %4, align 4
  %11 = icmp eq i32 %10, 3
  br i1 %11, label %12, label %18

12:                                               ; preds = %9
  %13 = load i32, ptr %5, align 4
  %14 = and i32 %13, 1
  %15 = icmp ne i32 %14, 0
  br i1 %15, label %16, label %17

16:                                               ; preds = %12
  store i32 1, ptr %3, align 4
  br label %38

17:                                               ; preds = %12
  store i32 0, ptr %3, align 4
  br label %38

18:                                               ; preds = %9
  %19 = load i32, ptr %4, align 4
  %20 = icmp eq i32 %19, 4
  br i1 %20, label %21, label %37

21:                                               ; preds = %18
  %22 = load i32, ptr %5, align 4
  %23 = and i32 %22, 64
  %24 = icmp ne i32 %23, 0
  br i1 %24, label %25, label %31

25:                                               ; preds = %21
  %26 = load i32, ptr %5, align 4
  %27 = and i32 %26, 1
  %28 = icmp ne i32 %27, 0
  br i1 %28, label %29, label %30

29:                                               ; preds = %25
  store i32 4, ptr %3, align 4
  br label %38

30:                                               ; preds = %25
  store i32 5, ptr %3, align 4
  br label %38

31:                                               ; preds = %21
  %32 = load i32, ptr %5, align 4
  %33 = and i32 %32, 1
  %34 = icmp ne i32 %33, 0
  br i1 %34, label %35, label %36

35:                                               ; preds = %31
  store i32 3, ptr %3, align 4
  br label %38

36:                                               ; preds = %31
  store i32 2, ptr %3, align 4
  br label %38

37:                                               ; preds = %18
  store i32 -1, ptr %3, align 4
  br label %38

38:                                               ; preds = %37, %36, %35, %30, %29, %17, %16, %8
  %39 = load i32, ptr %3, align 4
  ret i32 %39
}

; Function Attrs: nounwind uwtable
define i64 @tjBufSizeYUV(i32 noundef %0, i32 noundef %1, i32 noundef %2) #0 {
  %4 = alloca i32, align 4
  %5 = alloca i32, align 4
  %6 = alloca i32, align 4
  store i32 %0, ptr %4, align 4
  store i32 %1, ptr %5, align 4
  store i32 %2, ptr %6, align 4
  %7 = load i32, ptr %4, align 4
  %8 = load i32, ptr %5, align 4
  %9 = load i32, ptr %6, align 4
  %10 = call i64 @tjBufSizeYUV2(i32 noundef %7, i32 noundef 4, i32 noundef %8, i32 noundef %9)
  ret i64 %10
}

; Function Attrs: nounwind uwtable
define i32 @tjCompress(ptr noundef %0, ptr noundef %1, i32 noundef %2, i32 noundef %3, i32 noundef %4, i32 noundef %5, ptr noundef %6, ptr noundef %7, i32 noundef %8, i32 noundef %9, i32 noundef %10) #0 {
  %12 = alloca ptr, align 8
  %13 = alloca ptr, align 8
  %14 = alloca i32, align 4
  %15 = alloca i32, align 4
  %16 = alloca i32, align 4
  %17 = alloca i32, align 4
  %18 = alloca ptr, align 8
  %19 = alloca ptr, align 8
  %20 = alloca i32, align 4
  %21 = alloca i32, align 4
  %22 = alloca i32, align 4
  %23 = alloca i32, align 4
  %24 = alloca i64, align 8
  store ptr %0, ptr %12, align 8
  store ptr %1, ptr %13, align 8
  store i32 %2, ptr %14, align 4
  store i32 %3, ptr %15, align 4
  store i32 %4, ptr %16, align 4
  store i32 %5, ptr %17, align 4
  store ptr %6, ptr %18, align 8
  store ptr %7, ptr %19, align 8
  store i32 %8, ptr %20, align 4
  store i32 %9, ptr %21, align 4
  store i32 %10, ptr %22, align 4
  store i32 0, ptr %23, align 4
  %25 = load ptr, ptr %19, align 8
  %26 = icmp ne ptr %25, null
  br i1 %26, label %27, label %30

27:                                               ; preds = %11
  %28 = load ptr, ptr %19, align 8
  %29 = load i64, ptr %28, align 8
  br label %31

30:                                               ; preds = %11
  br label %31

31:                                               ; preds = %30, %27
  %32 = phi i64 [ %29, %27 ], [ 0, %30 ]
  store i64 %32, ptr %24, align 8
  %33 = load i32, ptr %22, align 4
  %34 = and i32 %33, 512
  %35 = icmp ne i32 %34, 0
  br i1 %35, label %36, label %53

36:                                               ; preds = %31
  %37 = load i32, ptr %14, align 4
  %38 = load i32, ptr %16, align 4
  %39 = load i32, ptr %20, align 4
  %40 = call i64 @tjBufSizeYUV(i32 noundef %37, i32 noundef %38, i32 noundef %39)
  store i64 %40, ptr %24, align 8
  %41 = load ptr, ptr %12, align 8
  %42 = load ptr, ptr %13, align 8
  %43 = load i32, ptr %14, align 4
  %44 = load i32, ptr %15, align 4
  %45 = load i32, ptr %16, align 4
  %46 = load i32, ptr %17, align 4
  %47 = load i32, ptr %22, align 4
  %48 = call i32 @getPixelFormat(i32 noundef %46, i32 noundef %47)
  %49 = load ptr, ptr %18, align 8
  %50 = load i32, ptr %20, align 4
  %51 = load i32, ptr %22, align 4
  %52 = call i32 @tjEncodeYUV2(ptr noundef %41, ptr noundef %42, i32 noundef %43, i32 noundef %44, i32 noundef %45, i32 noundef %48, ptr noundef %49, i32 noundef %50, i32 noundef %51)
  store i32 %52, ptr %23, align 4
  br label %67

53:                                               ; preds = %31
  %54 = load ptr, ptr %12, align 8
  %55 = load ptr, ptr %13, align 8
  %56 = load i32, ptr %14, align 4
  %57 = load i32, ptr %15, align 4
  %58 = load i32, ptr %16, align 4
  %59 = load i32, ptr %17, align 4
  %60 = load i32, ptr %22, align 4
  %61 = call i32 @getPixelFormat(i32 noundef %59, i32 noundef %60)
  %62 = load i32, ptr %20, align 4
  %63 = load i32, ptr %21, align 4
  %64 = load i32, ptr %22, align 4
  %65 = or i32 %64, 1024
  %66 = call i32 @tjCompress2(ptr noundef %54, ptr noundef %55, i32 noundef %56, i32 noundef %57, i32 noundef %58, i32 noundef %61, ptr noundef %18, ptr noundef %24, i32 noundef %62, i32 noundef %63, i32 noundef %65)
  store i32 %66, ptr %23, align 4
  br label %67

67:                                               ; preds = %53, %36
  %68 = load i64, ptr %24, align 8
  %69 = load ptr, ptr %19, align 8
  store i64 %68, ptr %69, align 8
  %70 = load i32, ptr %23, align 4
  ret i32 %70
}