; Function Attrs: nounwind uwtable
define range(i32 -1, 1) i32 @tjCompress(ptr noundef %0, ptr noundef %1, i32 noundef %2, i32 noundef %3, i32 noundef %4, i32 noundef %5, ptr noundef %6, ptr noundef %7, i32 noundef %8, i32 noundef %9, i32 noundef %10) local_unnamed_addr #0 {
  %12 = alloca ptr, align 8
  %13 = alloca i64, align 8
  store ptr %6, ptr %12, align 8
  %.not = icmp eq ptr %7, null
  br i1 %.not, label %16, label %14

14:                                               ; preds = %11
  %15 = load i64, ptr %7, align 8
  br label %16

16:                                               ; preds = %11, %14
  %17 = phi i64 [ %15, %14 ], [ 0, %11 ]
  store i64 %17, ptr %13, align 8
  %18 = and i32 %10, 512
  %.not27 = icmp eq i32 %18, 0
  br i1 %.not27, label %32, label %19

19:                                               ; preds = %16
  %20 = tail call i64 @tj3YUVBufSize(i32 noundef %2, i32 noundef 4, i32 noundef %4, i32 noundef %8)
  %21 = icmp eq i64 %20, 0
  %22 = select i1 %21, i64 -1, i64 %20
  switch i32 %5, label %30 [
    i32 1, label %getPixelFormat.exit
    i32 3, label %23
    i32 4, label %25
  ]

23:                                               ; preds = %19
  %24 = and i32 %10, 1
  br label %getPixelFormat.exit

25:                                               ; preds = %19
  %26 = and i32 %10, 64
  %.not.i = icmp eq i32 %26, 0
  %27 = and i32 %10, 1
  br i1 %.not.i, label %29, label %28

28:                                               ; preds = %25
  %.12.i = xor i32 %27, 5
  br label %getPixelFormat.exit

29:                                               ; preds = %25
  %.13.i = or disjoint i32 %27, 2
  br label %getPixelFormat.exit

30:                                               ; preds = %19
  br label %getPixelFormat.exit

getPixelFormat.exit:                              ; preds = %19, %23, %28, %29, %30
  %.0.i = phi i32 [ -1, %30 ], [ 6, %19 ], [ %24, %23 ], [ %.12.i, %28 ], [ %.13.i, %29 ]
  %31 = tail call range(i32 -1, 1) i32 @tjEncodeYUV3(ptr noundef %0, ptr noundef %1, i32 noundef %2, i32 noundef %3, i32 noundef %4, i32 noundef %.0.i, ptr noundef %6, i32 noundef 4, i32 noundef %8, i32 noundef %10)
  br label %43

32:                                               ; preds = %16
  switch i32 %5, label %40 [
    i32 1, label %getPixelFormat.exit32
    i32 3, label %33
    i32 4, label %35
  ]

33:                                               ; preds = %32
  %34 = and i32 %10, 1
  br label %getPixelFormat.exit32

35:                                               ; preds = %32
  %36 = and i32 %10, 64
  %.not.i28 = icmp eq i32 %36, 0
  %37 = and i32 %10, 1
  br i1 %.not.i28, label %39, label %38

38:                                               ; preds = %35
  %.12.i29 = xor i32 %37, 5
  br label %getPixelFormat.exit32

39:                                               ; preds = %35
  %.13.i31 = or disjoint i32 %37, 2
  br label %getPixelFormat.exit32

40:                                               ; preds = %32
  br label %getPixelFormat.exit32

getPixelFormat.exit32:                            ; preds = %32, %33, %38, %39, %40
  %.0.i30 = phi i32 [ -1, %40 ], [ 6, %32 ], [ %34, %33 ], [ %.12.i29, %38 ], [ %.13.i31, %39 ]
  %41 = or i32 %10, 1024
  %42 = call i32 @tjCompress2(ptr noundef %0, ptr noundef %1, i32 noundef %2, i32 noundef %3, i32 noundef %4, i32 noundef %.0.i30, ptr noundef nonnull %12, ptr noundef nonnull %13, i32 noundef %8, i32 noundef %9, i32 noundef %41)
  %.pre = load i64, ptr %13, align 8
  br label %43

43:                                               ; preds = %getPixelFormat.exit32, %getPixelFormat.exit
  %44 = phi i64 [ %22, %getPixelFormat.exit ], [ %.pre, %getPixelFormat.exit32 ]
  %.0 = phi i32 [ %31, %getPixelFormat.exit ], [ %42, %getPixelFormat.exit32 ]
  store i64 %44, ptr %7, align 8
  ret i32 %.0
}